; Function Attrs: mustprogress uwtable
define hidden noundef zeroext i1 @_ZN2dt6solver5visitEP4expr(ptr noundef nonnull align 8 dereferenceable(472) %0, ptr noundef %1) unnamed_addr #3 align 2 {
  %3 = load ptr, ptr %0, align 8, !tbaa !388
  %4 = getelementptr inbounds nuw i8, ptr %3, i64 544
  %5 = load ptr, ptr %4, align 8
  %6 = tail call noundef zeroext i1 %5(ptr noundef nonnull align 8 dereferenceable(472) %0, ptr noundef %1)
  br i1 %6, label %_ZNK2dt6solver11is_datatypeEP4expr.exit.thread, label %7

7:                                                ; preds = %2
  %8 = getelementptr inbounds nuw i8, ptr %1, i64 4
  %9 = load i32, ptr %8, align 4
  %10 = and i32 %9, 65535
  %11 = icmp eq i32 %10, 0
  br i1 %11, label %12, label %23

12:                                               ; preds = %7
  %13 = getelementptr inbounds nuw i8, ptr %1, i64 16
  %14 = load ptr, ptr %13, align 8, !tbaa !492
  %15 = getelementptr inbounds nuw i8, ptr %14, i64 24
  %16 = load ptr, ptr %15, align 8, !tbaa !503
  %17 = icmp eq ptr %16, null
  br i1 %17, label %_ZNK3app13get_family_idEv.exit, label %18

18:                                               ; preds = %12
  %19 = load i32, ptr %16, align 8, !tbaa !518
  br label %_ZNK3app13get_family_idEv.exit

_ZNK3app13get_family_idEv.exit:                   ; preds = %12, %18
  %20 = phi i32 [ %19, %18 ], [ -1, %12 ]
  %21 = getelementptr inbounds nuw i8, ptr %0, i64 12
  %22 = load i32, ptr %21, align 4, !tbaa !452
  %.not = icmp eq i32 %20, %22
  br i1 %.not, label %46, label %23

23:                                               ; preds = %_ZNK3app13get_family_idEv.exit, %7
  %24 = getelementptr inbounds nuw i8, ptr %0, i64 80
  %25 = load ptr, ptr %24, align 8, !tbaa !449
  %26 = load ptr, ptr %25, align 8, !tbaa !388
  %27 = getelementptr inbounds nuw i8, ptr %26, i64 440
  %28 = load ptr, ptr %27, align 8
  tail call void %28(ptr noundef nonnull align 8 dereferenceable(8456) %25, ptr noundef nonnull %1)
  %29 = getelementptr inbounds nuw i8, ptr %0, i64 112
  %30 = tail call noundef ptr @_ZNK4expr8get_sortEv(ptr noundef nonnull align 4 dereferenceable(16) %1)
  %31 = tail call noundef i32 @_ZNK8datatype4util3fidEv(ptr noundef nonnull align 8 dereferenceable(24) %29)
  %32 = getelementptr inbounds nuw i8, ptr %30, i64 24
  %33 = load ptr, ptr %32, align 8, !tbaa !503
  %34 = icmp eq ptr %33, null
  br i1 %34, label %_ZNK2dt6solver11is_datatypeEP4expr.exit.thread, label %_ZNK4decl13get_family_idEv.exit.thread.i.i.i.i

_ZNK4decl13get_family_idEv.exit.thread.i.i.i.i:   ; preds = %23
  %35 = load i32, ptr %33, align 8, !tbaa !518
  %36 = icmp eq i32 %35, %31
  br i1 %36, label %_ZNK2dt6solver11is_datatypeEP4expr.exit, label %_ZNK2dt6solver11is_datatypeEP4expr.exit.thread

_ZNK2dt6solver11is_datatypeEP4expr.exit:          ; preds = %_ZNK4decl13get_family_idEv.exit.thread.i.i.i.i
  %37 = getelementptr inbounds nuw i8, ptr %33, i64 4
  %38 = load i32, ptr %37, align 4, !tbaa !563
  %39 = icmp eq i32 %38, 0
  br i1 %39, label %40, label %_ZNK2dt6solver11is_datatypeEP4expr.exit.thread

40:                                               ; preds = %_ZNK2dt6solver11is_datatypeEP4expr.exit
  %41 = tail call noundef ptr @_ZNK3euf13th_euf_solver10expr2enodeEP4expr(ptr noundef nonnull align 8 dereferenceable(108) %0, ptr noundef nonnull %1)
  %42 = load ptr, ptr %0, align 8, !tbaa !388
  %43 = getelementptr inbounds nuw i8, ptr %42, i64 528
  %44 = load ptr, ptr %43, align 8
  %45 = tail call noundef i32 %44(ptr noundef nonnull align 8 dereferenceable(472) %0, ptr noundef %41)
  br label %_ZNK2dt6solver11is_datatypeEP4expr.exit.thread

46:                                               ; preds = %_ZNK3app13get_family_idEv.exit
  %47 = getelementptr inbounds nuw i8, ptr %0, i64 64
  %48 = load ptr, ptr %47, align 8, !tbaa !441
  %49 = icmp eq ptr %48, null
  br i1 %49, label %56, label %50

50:                                               ; preds = %46
  %51 = getelementptr inbounds i8, ptr %48, i64 -4
  %52 = load i32, ptr %51, align 4, !tbaa !387
  %53 = getelementptr inbounds i8, ptr %48, i64 -8
  %54 = load i32, ptr %53, align 4, !tbaa !387
  %55 = icmp eq i32 %52, %54
  br i1 %55, label %56, label %_ZN6vectorIN3sat6eframeELb0EjE9push_backEOS1_.exit

56:                                               ; preds = %50, %46
  tail call void @_ZN6vectorIN3sat6eframeELb0EjE13expand_vectorEv(ptr noundef nonnull align 8 dereferenceable(8) %47)
  %.pre.i = load ptr, ptr %47, align 8, !tbaa !441
  %.phi.trans.insert.i = getelementptr inbounds i8, ptr %.pre.i, i64 -4
  %.pre2.i = load i32, ptr %.phi.trans.insert.i, align 4, !tbaa !387
  br label %_ZN6vectorIN3sat6eframeELb0EjE9push_backEOS1_.exit

_ZN6vectorIN3sat6eframeELb0EjE9push_backEOS1_.exit: ; preds = %50, %56
  %57 = phi i32 [ %.pre2.i, %56 ], [ %52, %50 ]
  %58 = phi ptr [ %.pre.i, %56 ], [ %48, %50 ]
  %59 = zext i32 %57 to i64
  %60 = getelementptr inbounds nuw %"struct.sat::eframe", ptr %58, i64 %59
  store ptr %1, ptr %60, align 8, !tbaa !433
  %.sroa.4.0..sroa_idx = getelementptr inbounds nuw i8, ptr %60, i64 8
  store i32 0, ptr %.sroa.4.0..sroa_idx, align 8, !tbaa !387
  %61 = getelementptr inbounds i8, ptr %58, i64 -4
  %62 = add i32 %57, 1
  store i32 %62, ptr %61, align 4, !tbaa !387
  br label %_ZNK2dt6solver11is_datatypeEP4expr.exit.thread

_ZNK2dt6solver11is_datatypeEP4expr.exit.thread:   ; preds = %23, %_ZNK4decl13get_family_idEv.exit.thread.i.i.i.i, %_ZNK2dt6solver11is_datatypeEP4expr.exit, %40, %2, %_ZN6vectorIN3sat6eframeELb0EjE9push_backEOS1_.exit
  %.0 = phi i1 [ false, %_ZN6vectorIN3sat6eframeELb0EjE9push_backEOS1_.exit ], [ true, %2 ], [ true, %40 ], [ true, %_ZNK2dt6solver11is_datatypeEP4expr.exit ], [ true, %_ZNK4decl13get_family_idEv.exit.thread.i.i.i.i ], [ true, %23 ]
  ret i1 %.0
}